; Function Attrs: mustprogress uwtable
define void @_ZN6icu_778Calendar11setTimeZoneERKNS_8TimeZoneE(ptr noundef nonnull align 8 captures(none) dereferenceable(192) %0, ptr noundef nonnull align 8 dereferenceable(72) %1) local_unnamed_addr #1 align 2 {
  %3 = load ptr, ptr %1, align 8, !tbaa !15
  %4 = getelementptr inbounds nuw i8, ptr %3, i64 96
  %5 = load ptr, ptr %4, align 8
  %6 = tail call noundef ptr %5(ptr noundef nonnull align 8 dereferenceable(72) %1)
  %7 = icmp eq ptr %6, null
  br i1 %7, label %_ZN6icu_778Calendar13adoptTimeZoneEPNS_8TimeZoneE.exit, label %8

8:                                                ; preds = %2
  %9 = getelementptr inbounds nuw i8, ptr %0, i64 144
  %10 = load ptr, ptr %9, align 8, !tbaa !41
  %11 = icmp eq ptr %10, null
  br i1 %11, label %16, label %12

12:                                               ; preds = %8
  %13 = load ptr, ptr %10, align 8, !tbaa !15
  %14 = getelementptr inbounds nuw i8, ptr %13, i64 8
  %15 = load ptr, ptr %14, align 8
  tail call void %15(ptr noundef nonnull align 8 dereferenceable(72) %10) #25
  br label %16

16:                                               ; preds = %12, %8
  store ptr %6, ptr %9, align 8, !tbaa !41
  %17 = getelementptr inbounds nuw i8, ptr %0, i64 152
  %18 = load i8, ptr %17, align 8
  %19 = and i8 %18, -3
  store i8 %19, ptr %17, align 8
  br label %_ZN6icu_778Calendar13adoptTimeZoneEPNS_8TimeZoneE.exit

_ZN6icu_778Calendar13adoptTimeZoneEPNS_8TimeZoneE.exit: ; preds = %2, %16
  ret void
}